target datalayout = "e-m:e-p270:32:32-p271:32:32-p272:64:64-i64:64-i128:128-f80:128-n8:16:32:64-S128"
target triple = "x86_64-unknown-linux-gnu"

%struct.MachineClass = type { %struct.ObjectClass, ptr, ptr, ptr, ptr, ptr, ptr, ptr, ptr, ptr, i32, i32, i32, i32, i32, i8, i8, ptr, ptr, ptr, ptr, ptr, ptr, i64, ptr, i8, i8, i8, i32, i8, i8, i32, ptr, ptr, i8, i8, i8, i8, i8, i8, i8, i8, %struct.SMPCompatProps, ptr, ptr, ptr, ptr, ptr, ptr, ptr }
%struct.ObjectClass = type { ptr, ptr, [4 x ptr], [4 x ptr], ptr, ptr }
%struct.SMPCompatProps = type { i8, i8, i8, i8, i8, i8 }

@.str.225 = private unnamed_addr constant [8 x i8] c"machine\00", align 1
@.str.226 = private unnamed_addr constant [98 x i8] c"/home/dtcxzyw/WorkSpace/Projects/compilers/llvm-opt-benchmark/bench/qemu/qemu/include/hw/boards.h\00", align 1
@.str.230 = private unnamed_addr constant [15 x i8] c"memory-backend\00", align 1
@.str.258 = private unnamed_addr constant [7 x i8] c"kernel\00", align 1
@.str.259 = private unnamed_addr constant [24 x i8] c"Linux kernel image file\00", align 1
@.str.260 = private unnamed_addr constant [7 x i8] c"initrd\00", align 1
@.str.261 = private unnamed_addr constant [27 x i8] c"Linux initial ramdisk file\00", align 1
@.str.262 = private unnamed_addr constant [7 x i8] c"append\00", align 1
@.str.263 = private unnamed_addr constant [26 x i8] c"Linux kernel command line\00", align 1
@.str.264 = private unnamed_addr constant [4 x i8] c"dtb\00", align 1
@.str.265 = private unnamed_addr constant [30 x i8] c"Linux kernel device tree file\00", align 1
@.str.266 = private unnamed_addr constant [8 x i8] c"dumpdtb\00", align 1
@.str.267 = private unnamed_addr constant [36 x i8] c"Dump current dtb to a file and quit\00", align 1
@.str.268 = private unnamed_addr constant [5 x i8] c"boot\00", align 1
@.str.269 = private unnamed_addr constant [18 x i8] c"BootConfiguration\00", align 1
@.str.270 = private unnamed_addr constant [19 x i8] c"Boot configuration\00", align 1
@.str.271 = private unnamed_addr constant [4 x i8] c"smp\00", align 1
@.str.272 = private unnamed_addr constant [17 x i8] c"SMPConfiguration\00", align 1
@.str.273 = private unnamed_addr constant [13 x i8] c"CPU topology\00", align 1
@.str.274 = private unnamed_addr constant [14 x i8] c"phandle-start\00", align 1
@.str.275 = private unnamed_addr constant [4 x i8] c"int\00", align 1
@.str.276 = private unnamed_addr constant [49 x i8] c"The first phandle ID we may generate dynamically\00", align 1
@.str.277 = private unnamed_addr constant [14 x i8] c"dt-compatible\00", align 1
@.str.278 = private unnamed_addr constant [56 x i8] c"Overrides the \22compatible\22 property of the dt root node\00", align 1
@.str.279 = private unnamed_addr constant [16 x i8] c"dump-guest-core\00", align 1
@.str.280 = private unnamed_addr constant [36 x i8] c"Include guest memory in a core dump\00", align 1
@.str.281 = private unnamed_addr constant [10 x i8] c"mem-merge\00", align 1
@.str.282 = private unnamed_addr constant [36 x i8] c"Enable/disable memory merge support\00", align 1
@.str.283 = private unnamed_addr constant [4 x i8] c"usb\00", align 1
@.str.284 = private unnamed_addr constant [33 x i8] c"Set on/off to enable/disable usb\00", align 1
@.str.285 = private unnamed_addr constant [9 x i8] c"graphics\00", align 1
@.str.286 = private unnamed_addr constant [48 x i8] c"Set on/off to enable/disable graphics emulation\00", align 1
@.str.287 = private unnamed_addr constant [9 x i8] c"firmware\00", align 1
@.str.288 = private unnamed_addr constant [15 x i8] c"Firmware image\00", align 1
@.str.289 = private unnamed_addr constant [16 x i8] c"suppress-vmdesc\00", align 1
@.str.290 = private unnamed_addr constant [44 x i8] c"Set on to disable self-describing migration\00", align 1
@.str.291 = private unnamed_addr constant [27 x i8] c"confidential-guest-support\00", align 1
@.str.292 = private unnamed_addr constant [41 x i8] c"Set confidential guest scheme to support\00", align 1
@.str.293 = private unnamed_addr constant [18 x i8] c"memory-encryption\00", align 1
@.str.294 = private unnamed_addr constant [36 x i8] c"Set memory encryption object to use\00", align 1
@.str.295 = private unnamed_addr constant [58 x i8] c"Set RAM backendValid value is ID of hostmem based backend\00", align 1
@.str.296 = private unnamed_addr constant [7 x i8] c"memory\00", align 1
@.str.297 = private unnamed_addr constant [24 x i8] c"MemorySizeConfiguration\00", align 1
@.str.298 = private unnamed_addr constant [26 x i8] c"Memory size configuration\00", align 1
@__func__.MACHINE_CLASS = private unnamed_addr constant [14 x i8] c"MACHINE_CLASS\00", align 1

; Function Attrs: nounwind sspstrong uwtable
define internal ptr @MACHINE_CLASS(ptr noundef %klass) #0 {
entry:
  %klass.addr = alloca ptr, align 8
  store ptr %klass, ptr %klass.addr, align 8
  %0 = load ptr, ptr %klass.addr, align 8
  %call = call ptr @object_class_dynamic_cast_assert(ptr noundef %0, ptr noundef @.str.225, ptr noundef @.str.226, i32 noundef 23, ptr noundef @__func__.MACHINE_CLASS)
  ret ptr %call
}

; Function Attrs: nounwind sspstrong uwtable
define internal void @machine_class_init(ptr noundef %oc, ptr noundef %data) #0 {
entry:
  %oc.addr = alloca ptr, align 8
  %data.addr = alloca ptr, align 8
  %mc = alloca ptr, align 8
  store ptr %oc, ptr %oc.addr, align 8
  store ptr %data, ptr %data.addr, align 8
  %0 = load ptr, ptr %oc.addr, align 8
  %call = call ptr @MACHINE_CLASS(ptr noundef %0)
  store ptr %call, ptr %mc, align 8
  %1 = load ptr, ptr %mc, align 8
  %default_ram_size = getelementptr inbounds %struct.MachineClass, ptr %1, i32 0, i32 23
  store i64 134217728, ptr %default_ram_size, align 8
  %2 = load ptr, ptr %mc, align 8
  %rom_file_has_mr = getelementptr inbounds %struct.MachineClass, ptr %2, i32 0, i32 27
  store i8 1, ptr %rom_file_has_mr, align 2
  %3 = load ptr, ptr %mc, align 8
  %numa_mem_align_shift = getelementptr inbounds %struct.MachineClass, ptr %3, i32 0, i32 31
  store i32 23, ptr %numa_mem_align_shift, align 4
  %4 = load ptr, ptr %oc.addr, align 8
  %call1 = call ptr @object_class_property_add_str(ptr noundef %4, ptr noundef @.str.258, ptr noundef @machine_get_kernel, ptr noundef @machine_set_kernel)
  %5 = load ptr, ptr %oc.addr, align 8
  call void @object_class_property_set_description(ptr noundef %5, ptr noundef @.str.258, ptr noundef @.str.259)
  %6 = load ptr, ptr %oc.addr, align 8
  %call2 = call ptr @object_class_property_add_str(ptr noundef %6, ptr noundef @.str.260, ptr noundef @machine_get_initrd, ptr noundef @machine_set_initrd)
  %7 = load ptr, ptr %oc.addr, align 8
  call void @object_class_property_set_description(ptr noundef %7, ptr noundef @.str.260, ptr noundef @.str.261)
  %8 = load ptr, ptr %oc.addr, align 8
  %call3 = call ptr @object_class_property_add_str(ptr noundef %8, ptr noundef @.str.262, ptr noundef @machine_get_append, ptr noundef @machine_set_append)
  %9 = load ptr, ptr %oc.addr, align 8
  call void @object_class_property_set_description(ptr noundef %9, ptr noundef @.str.262, ptr noundef @.str.263)
  %10 = load ptr, ptr %oc.addr, align 8
  %call4 = call ptr @object_class_property_add_str(ptr noundef %10, ptr noundef @.str.264, ptr noundef @machine_get_dtb, ptr noundef @machine_set_dtb)
  %11 = load ptr, ptr %oc.addr, align 8
  call void @object_class_property_set_description(ptr noundef %11, ptr noundef @.str.264, ptr noundef @.str.265)
  %12 = load ptr, ptr %oc.addr, align 8
  %call5 = call ptr @object_class_property_add_str(ptr noundef %12, ptr noundef @.str.266, ptr noundef @machine_get_dumpdtb, ptr noundef @machine_set_dumpdtb)
  %13 = load ptr, ptr %oc.addr, align 8
  call void @object_class_property_set_description(ptr noundef %13, ptr noundef @.str.266, ptr noundef @.str.267)
  %14 = load ptr, ptr %oc.addr, align 8
  %call6 = call ptr @object_class_property_add(ptr noundef %14, ptr noundef @.str.268, ptr noundef @.str.269, ptr noundef @machine_get_boot, ptr noundef @machine_set_boot, ptr noundef null, ptr noundef null)
  %15 = load ptr, ptr %oc.addr, align 8
  call void @object_class_property_set_description(ptr noundef %15, ptr noundef @.str.268, ptr noundef @.str.270)
  %16 = load ptr, ptr %oc.addr, align 8
  %call7 = call ptr @object_class_property_add(ptr noundef %16, ptr noundef @.str.271, ptr noundef @.str.272, ptr noundef @machine_get_smp, ptr noundef @machine_set_smp, ptr noundef null, ptr noundef null)
  %17 = load ptr, ptr %oc.addr, align 8
  call void @object_class_property_set_description(ptr noundef %17, ptr noundef @.str.271, ptr noundef @.str.273)
  %18 = load ptr, ptr %oc.addr, align 8
  %call8 = call ptr @object_class_property_add(ptr noundef %18, ptr noundef @.str.274, ptr noundef @.str.275, ptr noundef @machine_get_phandle_start, ptr noundef @machine_set_phandle_start, ptr noundef null, ptr noundef null)
  %19 = load ptr, ptr %oc.addr, align 8
  call void @object_class_property_set_description(ptr noundef %19, ptr noundef @.str.274, ptr noundef @.str.276)
  %20 = load ptr, ptr %oc.addr, align 8
  %call9 = call ptr @object_class_property_add_str(ptr noundef %20, ptr noundef @.str.277, ptr noundef @machine_get_dt_compatible, ptr noundef @machine_set_dt_compatible)
  %21 = load ptr, ptr %oc.addr, align 8
  call void @object_class_property_set_description(ptr noundef %21, ptr noundef @.str.277, ptr noundef @.str.278)
  %22 = load ptr, ptr %oc.addr, align 8
  %call10 = call ptr @object_class_property_add_bool(ptr noundef %22, ptr noundef @.str.279, ptr noundef @machine_get_dump_guest_core, ptr noundef @machine_set_dump_guest_core)
  %23 = load ptr, ptr %oc.addr, align 8
  call void @object_class_property_set_description(ptr noundef %23, ptr noundef @.str.279, ptr noundef @.str.280)
  %24 = load ptr, ptr %oc.addr, align 8
  %call11 = call ptr @object_class_property_add_bool(ptr noundef %24, ptr noundef @.str.281, ptr noundef @machine_get_mem_merge, ptr noundef @machine_set_mem_merge)
  %25 = load ptr, ptr %oc.addr, align 8
  call void @object_class_property_set_description(ptr noundef %25, ptr noundef @.str.281, ptr noundef @.str.282)
  %26 = load ptr, ptr %oc.addr, align 8
  %call12 = call ptr @object_class_property_add_bool(ptr noundef %26, ptr noundef @.str.283, ptr noundef @machine_get_usb, ptr noundef @machine_set_usb)
  %27 = load ptr, ptr %oc.addr, align 8
  call void @object_class_property_set_description(ptr noundef %27, ptr noundef @.str.283, ptr noundef @.str.284)
  %28 = load ptr, ptr %oc.addr, align 8
  %call13 = call ptr @object_class_property_add_bool(ptr noundef %28, ptr noundef @.str.285, ptr noundef @machine_get_graphics, ptr noundef @machine_set_graphics)
  %29 = load ptr, ptr %oc.addr, align 8
  call void @object_class_property_set_description(ptr noundef %29, ptr noundef @.str.285, ptr noundef @.str.286)
  %30 = load ptr, ptr %oc.addr, align 8
  %call14 = call ptr @object_class_property_add_str(ptr noundef %30, ptr noundef @.str.287, ptr noundef @machine_get_firmware, ptr noundef @machine_set_firmware)
  %31 = load ptr, ptr %oc.addr, align 8
  call void @object_class_property_set_description(ptr noundef %31, ptr noundef @.str.287, ptr noundef @.str.288)
  %32 = load ptr, ptr %oc.addr, align 8
  %call15 = call ptr @object_class_property_add_bool(ptr noundef %32, ptr noundef @.str.289, ptr noundef @machine_get_suppress_vmdesc, ptr noundef @machine_set_suppress_vmdesc)
  %33 = load ptr, ptr %oc.addr, align 8
  call void @object_class_property_set_description(ptr noundef %33, ptr noundef @.str.289, ptr noundef @.str.290)
  %34 = load ptr, ptr %oc.addr, align 8
  %call16 = call ptr @object_class_property_add_link(ptr noundef %34, ptr noundef @.str.291, ptr noundef @.str.291, i64 noundef 104, ptr noundef @machine_check_confidential_guest_support, i32 noundef 1)
  %35 = load ptr, ptr %oc.addr, align 8
  call void @object_class_property_set_description(ptr noundef %35, ptr noundef @.str.291, ptr noundef @.str.292)
  %36 = load ptr, ptr %oc.addr, align 8
  %call17 = call ptr @object_class_property_add_str(ptr noundef %36, ptr noundef @.str.293, ptr noundef @machine_get_memory_encryption, ptr noundef @machine_set_memory_encryption)
  %37 = load ptr, ptr %oc.addr, align 8
  call void @object_class_property_set_description(ptr noundef %37, ptr noundef @.str.293, ptr noundef @.str.294)
  %38 = load ptr, ptr %oc.addr, align 8
  %call18 = call ptr @object_class_property_add_link(ptr noundef %38, ptr noundef @.str.230, ptr noundef @.str.230, i64 noundef 112, ptr noundef @object_property_allow_set_link, i32 noundef 1)
  %39 = load ptr, ptr %oc.addr, align 8
  call void @object_class_property_set_description(ptr noundef %39, ptr noundef @.str.230, ptr noundef @.str.295)
  %40 = load ptr, ptr %oc.addr, align 8
  %call19 = call ptr @object_class_property_add(ptr noundef %40, ptr noundef @.str.296, ptr noundef @.str.297, ptr noundef @machine_get_mem, ptr noundef @machine_set_mem, ptr noundef null, ptr noundef null)
  %41 = load ptr, ptr %oc.addr, align 8
  call void @object_class_property_set_description(ptr noundef %41, ptr noundef @.str.296, ptr noundef @.str.298)
  ret void
}