; Function Attrs: nounwind sspstrong uwtable
define internal void @machine_class_init(ptr noundef %oc, ptr readnone captures(none) %data) #0 {
entry:
  %call.i = tail call ptr @object_class_dynamic_cast_assert(ptr noundef %oc, ptr noundef nonnull @.str.225, ptr noundef nonnull @.str.226, i32 noundef 23, ptr noundef nonnull @__func__.MACHINE_CLASS) #16
  %default_ram_size = getelementptr inbounds nuw i8, ptr %call.i, i64 240
  store i64 134217728, ptr %default_ram_size, align 8
  %rom_file_has_mr = getelementptr inbounds nuw i8, ptr %call.i, i64 258
  store i8 1, ptr %rom_file_has_mr, align 2
  %numa_mem_align_shift = getelementptr inbounds nuw i8, ptr %call.i, i64 268
  store i32 23, ptr %numa_mem_align_shift, align 4
  %call1 = tail call ptr @object_class_property_add_str(ptr noundef %oc, ptr noundef nonnull @.str.258, ptr noundef nonnull @machine_get_kernel, ptr noundef nonnull @machine_set_kernel) #16
  tail call void @object_class_property_set_description(ptr noundef %oc, ptr noundef nonnull @.str.258, ptr noundef nonnull @.str.259) #16
  %call2 = tail call ptr @object_class_property_add_str(ptr noundef %oc, ptr noundef nonnull @.str.260, ptr noundef nonnull @machine_get_initrd, ptr noundef nonnull @machine_set_initrd) #16
  tail call void @object_class_property_set_description(ptr noundef %oc, ptr noundef nonnull @.str.260, ptr noundef nonnull @.str.261) #16
  %call3 = tail call ptr @object_class_property_add_str(ptr noundef %oc, ptr noundef nonnull @.str.262, ptr noundef nonnull @machine_get_append, ptr noundef nonnull @machine_set_append) #16
  tail call void @object_class_property_set_description(ptr noundef %oc, ptr noundef nonnull @.str.262, ptr noundef nonnull @.str.263) #16
  %call4 = tail call ptr @object_class_property_add_str(ptr noundef %oc, ptr noundef nonnull @.str.264, ptr noundef nonnull @machine_get_dtb, ptr noundef nonnull @machine_set_dtb) #16
  tail call void @object_class_property_set_description(ptr noundef %oc, ptr noundef nonnull @.str.264, ptr noundef nonnull @.str.265) #16
  %call5 = tail call ptr @object_class_property_add_str(ptr noundef %oc, ptr noundef nonnull @.str.266, ptr noundef nonnull @machine_get_dumpdtb, ptr noundef nonnull @machine_set_dumpdtb) #16
  tail call void @object_class_property_set_description(ptr noundef %oc, ptr noundef nonnull @.str.266, ptr noundef nonnull @.str.267) #16
  %call6 = tail call ptr @object_class_property_add(ptr noundef %oc, ptr noundef nonnull @.str.268, ptr noundef nonnull @.str.269, ptr noundef nonnull @machine_get_boot, ptr noundef nonnull @machine_set_boot, ptr noundef null, ptr noundef null) #16
  tail call void @object_class_property_set_description(ptr noundef %oc, ptr noundef nonnull @.str.268, ptr noundef nonnull @.str.270) #16
  %call7 = tail call ptr @object_class_property_add(ptr noundef %oc, ptr noundef nonnull @.str.271, ptr noundef nonnull @.str.272, ptr noundef nonnull @machine_get_smp, ptr noundef nonnull @machine_set_smp, ptr noundef null, ptr noundef null) #16
  tail call void @object_class_property_set_description(ptr noundef %oc, ptr noundef nonnull @.str.271, ptr noundef nonnull @.str.273) #16
  %call8 = tail call ptr @object_class_property_add(ptr noundef %oc, ptr noundef nonnull @.str.274, ptr noundef nonnull @.str.275, ptr noundef nonnull @machine_get_phandle_start, ptr noundef nonnull @machine_set_phandle_start, ptr noundef null, ptr noundef null) #16
  tail call void @object_class_property_set_description(ptr noundef %oc, ptr noundef nonnull @.str.274, ptr noundef nonnull @.str.276) #16
  %call9 = tail call ptr @object_class_property_add_str(ptr noundef %oc, ptr noundef nonnull @.str.277, ptr noundef nonnull @machine_get_dt_compatible, ptr noundef nonnull @machine_set_dt_compatible) #16
  tail call void @object_class_property_set_description(ptr noundef %oc, ptr noundef nonnull @.str.277, ptr noundef nonnull @.str.278) #16
  %call10 = tail call ptr @object_class_property_add_bool(ptr noundef %oc, ptr noundef nonnull @.str.279, ptr noundef nonnull @machine_get_dump_guest_core, ptr noundef nonnull @machine_set_dump_guest_core) #16
  tail call void @object_class_property_set_description(ptr noundef %oc, ptr noundef nonnull @.str.279, ptr noundef nonnull @.str.280) #16
  %call11 = tail call ptr @object_class_property_add_bool(ptr noundef %oc, ptr noundef nonnull @.str.281, ptr noundef nonnull @machine_get_mem_merge, ptr noundef nonnull @machine_set_mem_merge) #16
  tail call void @object_class_property_set_description(ptr noundef %oc, ptr noundef nonnull @.str.281, ptr noundef nonnull @.str.282) #16
  %call12 = tail call ptr @object_class_property_add_bool(ptr noundef %oc, ptr noundef nonnull @.str.283, ptr noundef nonnull @machine_get_usb, ptr noundef nonnull @machine_set_usb) #16
  tail call void @object_class_property_set_description(ptr noundef %oc, ptr noundef nonnull @.str.283, ptr noundef nonnull @.str.284) #16
  %call13 = tail call ptr @object_class_property_add_bool(ptr noundef %oc, ptr noundef nonnull @.str.285, ptr noundef nonnull @machine_get_graphics, ptr noundef nonnull @machine_set_graphics) #16
  tail call void @object_class_property_set_description(ptr noundef %oc, ptr noundef nonnull @.str.285, ptr noundef nonnull @.str.286) #16
  %call14 = tail call ptr @object_class_property_add_str(ptr noundef %oc, ptr noundef nonnull @.str.287, ptr noundef nonnull @machine_get_firmware, ptr noundef nonnull @machine_set_firmware) #16
  tail call void @object_class_property_set_description(ptr noundef %oc, ptr noundef nonnull @.str.287, ptr noundef nonnull @.str.288) #16
  %call15 = tail call ptr @object_class_property_add_bool(ptr noundef %oc, ptr noundef nonnull @.str.289, ptr noundef nonnull @machine_get_suppress_vmdesc, ptr noundef nonnull @machine_set_suppress_vmdesc) #16
  tail call void @object_class_property_set_description(ptr noundef %oc, ptr noundef nonnull @.str.289, ptr noundef nonnull @.str.290) #16
  %call16 = tail call ptr @object_class_property_add_link(ptr noundef %oc, ptr noundef nonnull @.str.291, ptr noundef nonnull @.str.291, i64 noundef 104, ptr noundef nonnull @machine_check_confidential_guest_support, i32 noundef 1) #16
  tail call void @object_class_property_set_description(ptr noundef %oc, ptr noundef nonnull @.str.291, ptr noundef nonnull @.str.292) #16
  %call17 = tail call ptr @object_class_property_add_str(ptr noundef %oc, ptr noundef nonnull @.str.293, ptr noundef nonnull @machine_get_memory_encryption, ptr noundef nonnull @machine_set_memory_encryption) #16
  tail call void @object_class_property_set_description(ptr noundef %oc, ptr noundef nonnull @.str.293, ptr noundef nonnull @.str.294) #16
  %call18 = tail call ptr @object_class_property_add_link(ptr noundef %oc, ptr noundef nonnull @.str.230, ptr noundef nonnull @.str.230, i64 noundef 112, ptr noundef nonnull @object_property_allow_set_link, i32 noundef 1) #16
  tail call void @object_class_property_set_description(ptr noundef %oc, ptr noundef nonnull @.str.230, ptr noundef nonnull @.str.295) #16
  %call19 = tail call ptr @object_class_property_add(ptr noundef %oc, ptr noundef nonnull @.str.296, ptr noundef nonnull @.str.297, ptr noundef nonnull @machine_get_mem, ptr noundef nonnull @machine_set_mem, ptr noundef null, ptr noundef null) #16
  tail call void @object_class_property_set_description(ptr noundef %oc, ptr noundef nonnull @.str.296, ptr noundef nonnull @.str.298) #16
  ret void
}